target datalayout = "e-m:e-p270:32:32-p271:32:32-p272:64:64-i64:64-i128:128-f80:128-n8:16:32:64-S128"
target triple = "x86_64-unknown-linux-gnu"

%"class.Assimp::CalcTangentsProcess" = type { %"class.Assimp::BaseProcess", float, i32 }
%"class.Assimp::BaseProcess" = type { ptr, ptr, ptr }

@.str = private unnamed_addr constant [26 x i8] c"PP_CT_MAX_SMOOTHING_ANGLE\00", align 1
@.str.1 = private unnamed_addr constant [28 x i8] c"PP_CT_TEXTURE_CHANNEL_INDEX\00", align 1

; Function Attrs: mustprogress nounwind uwtable
define linkonce_odr noundef nonnull align 4 dereferenceable(4) ptr @_ZSt3maxIfERKT_S2_S2_(ptr noundef nonnull align 4 dereferenceable(4) %__a, ptr noundef nonnull align 4 dereferenceable(4) %__b) #0 comdat {
entry:
  %retval = alloca ptr, align 8
  %__a.addr = alloca ptr, align 8
  %__b.addr = alloca ptr, align 8
  store ptr %__a, ptr %__a.addr, align 8
  store ptr %__b, ptr %__b.addr, align 8
  %0 = load ptr, ptr %__a.addr, align 8
  %1 = load float, ptr %0, align 4
  %2 = load ptr, ptr %__b.addr, align 8
  %3 = load float, ptr %2, align 4
  %cmp = fcmp olt float %1, %3
  br i1 %cmp, label %if.then, label %if.end

if.then:                                          ; preds = %entry
  %4 = load ptr, ptr %__b.addr, align 8
  store ptr %4, ptr %retval, align 8
  br label %return

if.end:                                           ; preds = %entry
  %5 = load ptr, ptr %__a.addr, align 8
  store ptr %5, ptr %retval, align 8
  br label %return

return:                                           ; preds = %if.end, %if.then
  %6 = load ptr, ptr %retval, align 8
  ret ptr %6
}

; Function Attrs: mustprogress nounwind uwtable
define linkonce_odr noundef nonnull align 4 dereferenceable(4) ptr @_ZSt3minIfERKT_S2_S2_(ptr noundef nonnull align 4 dereferenceable(4) %__a, ptr noundef nonnull align 4 dereferenceable(4) %__b) #0 comdat {
entry:
  %retval = alloca ptr, align 8
  %__a.addr = alloca ptr, align 8
  %__b.addr = alloca ptr, align 8
  store ptr %__a, ptr %__a.addr, align 8
  store ptr %__b, ptr %__b.addr, align 8
  %0 = load ptr, ptr %__b.addr, align 8
  %1 = load float, ptr %0, align 4
  %2 = load ptr, ptr %__a.addr, align 8
  %3 = load float, ptr %2, align 4
  %cmp = fcmp olt float %1, %3
  br i1 %cmp, label %if.then, label %if.end

if.then:                                          ; preds = %entry
  %4 = load ptr, ptr %__b.addr, align 8
  store ptr %4, ptr %retval, align 8
  br label %return

if.end:                                           ; preds = %entry
  %5 = load ptr, ptr %__a.addr, align 8
  store ptr %5, ptr %retval, align 8
  br label %return

return:                                           ; preds = %if.end, %if.then
  %6 = load ptr, ptr %retval, align 8
  ret ptr %6
}

; Function Attrs: mustprogress uwtable
define hidden void @_ZN6Assimp19CalcTangentsProcess15SetupPropertiesEPKNS_8ImporterE(ptr noundef nonnull align 8 dereferenceable(32) %this, ptr noundef %pImp) unnamed_addr #3 align 2 {
entry:
  %this.addr = alloca ptr, align 8
  %pImp.addr = alloca ptr, align 8
  %ref.tmp = alloca float, align 4
  %ref.tmp4 = alloca float, align 4
  store ptr %this, ptr %this.addr, align 8
  store ptr %pImp, ptr %pImp.addr, align 8
  %this1 = load ptr, ptr %this.addr, align 8
  %0 = load ptr, ptr %pImp.addr, align 8
  %call = call noundef float @_ZNK6Assimp8Importer16GetPropertyFloatEPKcf(ptr noundef nonnull align 8 dereferenceable(8) %0, ptr noundef @.str, float noundef 4.500000e+01)
  %configMaxAngle = getelementptr inbounds %"class.Assimp::CalcTangentsProcess", ptr %this1, i32 0, i32 1
  store float %call, ptr %configMaxAngle, align 8
  %configMaxAngle2 = getelementptr inbounds %"class.Assimp::CalcTangentsProcess", ptr %this1, i32 0, i32 1
  store float 4.500000e+01, ptr %ref.tmp, align 4
  %call3 = call noundef nonnull align 4 dereferenceable(4) ptr @_ZSt3minIfERKT_S2_S2_(ptr noundef nonnull align 4 dereferenceable(4) %configMaxAngle2, ptr noundef nonnull align 4 dereferenceable(4) %ref.tmp)
  store float 0.000000e+00, ptr %ref.tmp4, align 4
  %call5 = call noundef nonnull align 4 dereferenceable(4) ptr @_ZSt3maxIfERKT_S2_S2_(ptr noundef nonnull align 4 dereferenceable(4) %call3, ptr noundef nonnull align 4 dereferenceable(4) %ref.tmp4)
  %1 = load float, ptr %call5, align 4
  %configMaxAngle6 = getelementptr inbounds %"class.Assimp::CalcTangentsProcess", ptr %this1, i32 0, i32 1
  store float %1, ptr %configMaxAngle6, align 8
  %configMaxAngle7 = getelementptr inbounds %"class.Assimp::CalcTangentsProcess", ptr %this1, i32 0, i32 1
  %2 = load float, ptr %configMaxAngle7, align 8
  %mul = fmul float %2, 0x3F91DF46A0000000
  %configMaxAngle8 = getelementptr inbounds %"class.Assimp::CalcTangentsProcess", ptr %this1, i32 0, i32 1
  store float %mul, ptr %configMaxAngle8, align 8
  %3 = load ptr, ptr %pImp.addr, align 8
  %call9 = call noundef i32 @_ZNK6Assimp8Importer18GetPropertyIntegerEPKci(ptr noundef nonnull align 8 dereferenceable(8) %3, ptr noundef @.str.1, i32 noundef 0)
  %configSourceUV = getelementptr inbounds %"class.Assimp::CalcTangentsProcess", ptr %this1, i32 0, i32 2
  store i32 %call9, ptr %configSourceUV, align 4
  ret void
}