; Function Attrs: mustprogress uwtable
define hidden void @_ZN6Assimp19CalcTangentsProcess15SetupPropertiesEPKNS_8ImporterE(ptr nocapture noundef nonnull writeonly align 8 dereferenceable(32) %this, ptr noundef nonnull %pImp) unnamed_addr #3 align 2 {
entry:
  %call = tail call noundef float @_ZNK6Assimp8Importer16GetPropertyFloatEPKcf(ptr noundef nonnull align 8 dereferenceable(8) %pImp, ptr noundef nonnull @.str, float noundef 4.500000e+01)
  %configMaxAngle = getelementptr inbounds i8, ptr %this, i64 24
  %cmp.i = fcmp ogt float %call, 4.500000e+01
  %.sroa.speculated4 = select i1 %cmp.i, float 4.500000e+01, float %call
  %cmp.i2 = fcmp olt float %.sroa.speculated4, 0.000000e+00
  %.sroa.speculated = select i1 %cmp.i2, float 0.000000e+00, float %.sroa.speculated4
  %mul = fmul float %.sroa.speculated, 0x3F91DF46A0000000
  store float %mul, ptr %configMaxAngle, align 8
  %call9 = tail call noundef i32 @_ZNK6Assimp8Importer18GetPropertyIntegerEPKci(ptr noundef nonnull align 8 dereferenceable(8) %pImp, ptr noundef nonnull @.str.1, i32 noundef 0)
  %configSourceUV = getelementptr inbounds i8, ptr %this, i64 28
  store i32 %call9, ptr %configSourceUV, align 4
  ret void
}